target datalayout = "e-m:e-p270:32:32-p271:32:32-p272:64:64-i64:64-i128:128-f80:128-n8:16:32:64-S128"
target triple = "x86_64-pc-linux-gnu"

%struct.slurm_conf_t = type { i64, ptr, i16, ptr, ptr, ptr, ptr, ptr, i16, ptr, ptr, ptr, ptr, ptr, ptr, ptr, i16, ptr, ptr, ptr, ptr, i16, ptr, ptr, ptr, i64, ptr, ptr, ptr, ptr, i16, ptr, ptr, i16, i32, ptr, i32, ptr, i32, i32, ptr, ptr, i64, i64, ptr, i16, i16, ptr, i32, i32, ptr, i32, ptr, i32, i16, i16, i16, ptr, i16, i16, ptr, ptr, i32, i16, i16, ptr, i32, i16, ptr, ptr, ptr, ptr, i16, ptr, ptr, ptr, ptr, i32, ptr, ptr, ptr, ptr, i16, i16, ptr, i32, i32, i32, i16, i16, ptr, ptr, i16, ptr, ptr, i32, i32, i32, i32, i32, i64, i32, i32, i16, ptr, ptr, i32, ptr, ptr, ptr, i16, i32, ptr, ptr, i16, ptr, ptr, i32, i16, ptr, ptr, ptr, ptr, i32, i32, i16, i16, i32, ptr, i16, ptr, i32, i32, i32, i32, i32, i32, ptr, i16, ptr, ptr, i32, i16, ptr, i32, i16, i16, ptr, ptr, ptr, i16, ptr, ptr, ptr, ptr, i16, i16, ptr, i16, ptr, i16, ptr, i16, ptr, i16, ptr, ptr, ptr, ptr, i16, ptr, ptr, ptr, i32, ptr, i32, ptr, ptr, i16, ptr, ptr, i32, i16, ptr, ptr, i16, i16, ptr, i16, ptr, ptr, ptr, i32, ptr, i16, i16, ptr, ptr, ptr, ptr, ptr, ptr, ptr, ptr, i16, i32, i16, ptr, ptr, ptr, ptr, i32, ptr, ptr, ptr, i16, ptr, ptr, ptr, i16, ptr, i16, ptr, i16, i16, ptr }

@plugin_type = dso_local constant [10 x i8] c"cgroup/v2\00", align 1
@slurm_conf = external global %struct.slurm_conf_t, align 8
@ctl_names = internal global [5 x ptr] [ptr @.str.173, ptr @.str.174, ptr @.str.175, ptr @.str.176, ptr @.str.177], align 16
@.str.181 = private unnamed_addr constant [26 x i8] c"%s/cgroup.subtree_control\00", align 1
@.str.182 = private unnamed_addr constant [4 x i8] c"+%s\00", align 1
@.str.183 = private unnamed_addr constant [53 x i8] c"%s: %s: CGROUP: Cannot enable %s in %s, skipping: %m\00", align 1
@__func__._enable_subtree_control = private unnamed_addr constant [24 x i8] c"_enable_subtree_control\00", align 1
@.str.184 = private unnamed_addr constant [27 x i8] c"Cannot enable %s in %s: %m\00", align 1
@.str.185 = private unnamed_addr constant [44 x i8] c"%s: %s: CGROUP: Enabled %s controller in %s\00", align 1

; Function Attrs: nounwind uwtable
define internal i32 @_enable_subtree_control(ptr noundef %0, ptr noundef %1) #0 {
  %3 = alloca ptr, align 8
  %4 = alloca ptr, align 8
  %5 = alloca i32, align 4
  %6 = alloca i32, align 4
  %7 = alloca i32, align 4
  %8 = alloca ptr, align 8
  %9 = alloca ptr, align 8
  store ptr %0, ptr %3, align 8
  store ptr %1, ptr %4, align 8
  call void @llvm.lifetime.start.p0(i64 4, ptr %5) #10
  call void @llvm.lifetime.start.p0(i64 4, ptr %6) #10
  store i32 0, ptr %6, align 4
  call void @llvm.lifetime.start.p0(i64 4, ptr %7) #10
  call void @llvm.lifetime.start.p0(i64 8, ptr %8) #10
  store ptr null, ptr %8, align 8
  call void @llvm.lifetime.start.p0(i64 8, ptr %9) #10
  store ptr null, ptr %9, align 8
  %10 = load ptr, ptr %3, align 8
  call void (ptr, ptr, ...) @_xstrfmtcat(ptr noundef %9, ptr noundef @.str.181, ptr noundef %10)
  store i32 0, ptr %5, align 4
  br label %11

11:                                               ; preds = %91, %2
  %12 = load i32, ptr %5, align 4
  %13 = icmp slt i32 %12, 5
  br i1 %13, label %14, label %94

14:                                               ; preds = %11
  %15 = load ptr, ptr %4, align 8
  %16 = load i32, ptr %5, align 4
  %17 = sext i32 %16 to i64
  %18 = call i32 @slurm_bit_test(ptr noundef %15, i64 noundef %17)
  %19 = icmp ne i32 %18, 0
  br i1 %19, label %21, label %20

20:                                               ; preds = %14
  br label %91

21:                                               ; preds = %14
  %22 = load i32, ptr %5, align 4
  %23 = sext i32 %22 to i64
  %24 = getelementptr inbounds [5 x ptr], ptr @ctl_names, i64 0, i64 %23
  %25 = load ptr, ptr %24, align 8
  call void (ptr, ptr, ...) @_xstrfmtcat(ptr noundef %8, ptr noundef @.str.182, ptr noundef %25)
  %26 = load ptr, ptr %9, align 8
  %27 = load ptr, ptr %8, align 8
  %28 = load ptr, ptr %8, align 8
  %29 = call i64 @strlen(ptr noundef %28) #12
  %30 = call i32 @common_file_write_content(ptr noundef %26, ptr noundef %27, i64 noundef %29)
  store i32 %30, ptr %7, align 4
  %31 = load i32, ptr %7, align 4
  %32 = icmp ne i32 %31, 0
  br i1 %32, label %33, label %69

33:                                               ; preds = %21
  %34 = call ptr @__errno_location() #13
  %35 = load i32, ptr %34, align 4
  %36 = icmp eq i32 %35, 30
  br i1 %36, label %37, label %58

37:                                               ; preds = %33
  br label %38

38:                                               ; preds = %37
  %39 = load i64, ptr getelementptr inbounds nuw (%struct.slurm_conf_t, ptr @slurm_conf, i32 0, i32 42), align 8
  %40 = and i64 %39, 36028797018963968
  %41 = icmp ne i64 %40, 0
  br i1 %41, label %42, label %55

42:                                               ; preds = %38
  br label %43

43:                                               ; preds = %42
  %44 = call i32 @get_log_level()
  %45 = icmp sge i32 %44, 4
  br i1 %45, label %46, label %52

46:                                               ; preds = %43
  %47 = load i32, ptr %5, align 4
  %48 = sext i32 %47 to i64
  %49 = getelementptr inbounds [5 x ptr], ptr @ctl_names, i64 0, i64 %48
  %50 = load ptr, ptr %49, align 8
  %51 = load ptr, ptr %9, align 8
  call void (i32, ptr, ...) @log_var(i32 noundef 4, ptr noundef @.str.183, ptr noundef @plugin_type, ptr noundef @__func__._enable_subtree_control, ptr noundef %50, ptr noundef %51)
  br label %52

52:                                               ; preds = %46, %43
  br label %53

53:                                               ; preds = %52
  br label %54

54:                                               ; preds = %53
  br label %55

55:                                               ; preds = %54, %38
  br label %56

56:                                               ; preds = %55
  br label %57

57:                                               ; preds = %56
  br label %68

58:                                               ; preds = %33
  %59 = load i32, ptr %5, align 4
  %60 = sext i32 %59 to i64
  %61 = getelementptr inbounds [5 x ptr], ptr @ctl_names, i64 0, i64 %60
  %62 = load ptr, ptr %61, align 8
  %63 = load ptr, ptr %9, align 8
  %64 = call i32 (ptr, ...) @error(ptr noundef @.str.184, ptr noundef %62, ptr noundef %63)
  %65 = load ptr, ptr %4, align 8
  %66 = load i32, ptr %5, align 4
  %67 = sext i32 %66 to i64
  call void @bit_clear(ptr noundef %65, i64 noundef %67)
  store i32 -1, ptr %6, align 4
  br label %68

68:                                               ; preds = %58, %57
  br label %90

69:                                               ; preds = %21
  br label %70

70:                                               ; preds = %69
  %71 = load i64, ptr getelementptr inbounds nuw (%struct.slurm_conf_t, ptr @slurm_conf, i32 0, i32 42), align 8
  %72 = and i64 %71, 36028797018963968
  %73 = icmp ne i64 %72, 0
  br i1 %73, label %74, label %87

74:                                               ; preds = %70
  br label %75

75:                                               ; preds = %74
  %76 = call i32 @get_log_level()
  %77 = icmp sge i32 %76, 4
  br i1 %77, label %78, label %84

78:                                               ; preds = %75
  %79 = load i32, ptr %5, align 4
  %80 = sext i32 %79 to i64
  %81 = getelementptr inbounds [5 x ptr], ptr @ctl_names, i64 0, i64 %80
  %82 = load ptr, ptr %81, align 8
  %83 = load ptr, ptr %9, align 8
  call void (i32, ptr, ...) @log_var(i32 noundef 4, ptr noundef @.str.185, ptr noundef @plugin_type, ptr noundef @__func__._enable_subtree_control, ptr noundef %82, ptr noundef %83)
  br label %84

84:                                               ; preds = %78, %75
  br label %85

85:                                               ; preds = %84
  br label %86

86:                                               ; preds = %85
  br label %87

87:                                               ; preds = %86, %70
  br label %88

88:                                               ; preds = %87
  br label %89

89:                                               ; preds = %88
  br label %90

90:                                               ; preds = %89, %68
  call void @slurm_xfree(ptr noundef %8)
  br label %91

91:                                               ; preds = %90, %20
  %92 = load i32, ptr %5, align 4
  %93 = add nsw i32 %92, 1
  store i32 %93, ptr %5, align 4
  br label %11, !llvm.loop !19

94:                                               ; preds = %11
  call void @slurm_xfree(ptr noundef %9)
  %95 = load i32, ptr %6, align 4
  call void @llvm.lifetime.end.p0(i64 8, ptr %9) #10
  call void @llvm.lifetime.end.p0(i64 8, ptr %8) #10
  call void @llvm.lifetime.end.p0(i64 4, ptr %7) #10
  call void @llvm.lifetime.end.p0(i64 4, ptr %6) #10
  call void @llvm.lifetime.end.p0(i64 4, ptr %5) #10
  ret i32 %95
}