; Function Attrs: nounwind uwtable
define internal fastcc range(i32 -1, 1) i32 @_enable_subtree_control(ptr noundef %0, ptr noundef %1) unnamed_addr #0 {
  %3 = alloca ptr, align 8
  %4 = alloca ptr, align 8
  call void @llvm.lifetime.start.p0(i64 8, ptr nonnull %3) #17
  store ptr null, ptr %3, align 8
  call void @llvm.lifetime.start.p0(i64 8, ptr nonnull %4) #17
  store ptr null, ptr %4, align 8
  call void (ptr, ptr, ...) @_xstrfmtcat(ptr noundef nonnull %4, ptr noundef nonnull @.str.181, ptr noundef %0) #17
  br label %5

5:                                                ; preds = %2, %38
  %indvars.iv = phi i64 [ 0, %2 ], [ %indvars.iv.next, %38 ]
  %.01216 = phi i32 [ 0, %2 ], [ %.1, %38 ]
  %6 = call i32 @slurm_bit_test(ptr noundef %1, i64 noundef %indvars.iv) #17
  %.not = icmp eq i32 %6, 0
  br i1 %.not, label %38, label %7

7:                                                ; preds = %5
  %8 = getelementptr inbounds nuw [5 x ptr], ptr @ctl_names, i64 0, i64 %indvars.iv
  %9 = load ptr, ptr %8, align 8
  call void (ptr, ptr, ...) @_xstrfmtcat(ptr noundef nonnull %3, ptr noundef nonnull @.str.182, ptr noundef %9) #17
  %10 = load ptr, ptr %4, align 8
  %11 = load ptr, ptr %3, align 8
  %12 = call i64 @strlen(ptr noundef nonnull dereferenceable(1) %11) #20
  %13 = call i32 @common_file_write_content(ptr noundef %10, ptr noundef nonnull %11, i64 noundef %12) #17
  %.not13 = icmp eq i32 %13, 0
  br i1 %.not13, label %29, label %14

14:                                               ; preds = %7
  %15 = tail call ptr @__errno_location() #19
  %16 = load i32, ptr %15, align 4
  %17 = icmp eq i32 %16, 30
  br i1 %17, label %18, label %26

18:                                               ; preds = %14
  %19 = load i64, ptr getelementptr inbounds nuw (i8, ptr @slurm_conf, i64 320), align 8
  %20 = and i64 %19, 36028797018963968
  %.not15 = icmp eq i64 %20, 0
  br i1 %.not15, label %37, label %21

21:                                               ; preds = %18
  %22 = call i32 @get_log_level() #17
  %23 = icmp sgt i32 %22, 3
  br i1 %23, label %24, label %37

24:                                               ; preds = %21
  %25 = load ptr, ptr %4, align 8
  call void (i32, ptr, ...) @log_var(i32 noundef 4, ptr noundef nonnull @.str.183, ptr noundef nonnull @plugin_type, ptr noundef nonnull @__func__._enable_subtree_control, ptr noundef %9, ptr noundef %25) #17
  br label %37

26:                                               ; preds = %14
  %27 = load ptr, ptr %4, align 8
  %28 = call i32 (ptr, ...) @error(ptr noundef nonnull @.str.184, ptr noundef %9, ptr noundef %27) #17
  call void @bit_clear(ptr noundef %1, i64 noundef %indvars.iv) #17
  br label %37

29:                                               ; preds = %7
  %30 = load i64, ptr getelementptr inbounds nuw (i8, ptr @slurm_conf, i64 320), align 8
  %31 = and i64 %30, 36028797018963968
  %.not14 = icmp eq i64 %31, 0
  br i1 %.not14, label %37, label %32

32:                                               ; preds = %29
  %33 = call i32 @get_log_level() #17
  %34 = icmp sgt i32 %33, 3
  br i1 %34, label %35, label %37

35:                                               ; preds = %32
  %36 = load ptr, ptr %4, align 8
  call void (i32, ptr, ...) @log_var(i32 noundef 4, ptr noundef nonnull @.str.185, ptr noundef nonnull @plugin_type, ptr noundef nonnull @__func__._enable_subtree_control, ptr noundef %9, ptr noundef %36) #17
  br label %37

37:                                               ; preds = %29, %35, %32, %26, %21, %24, %18
  %.2 = phi i32 [ %.01216, %24 ], [ %.01216, %21 ], [ %.01216, %18 ], [ -1, %26 ], [ %.01216, %35 ], [ %.01216, %32 ], [ %.01216, %29 ]
  call void @slurm_xfree(ptr noundef nonnull %3) #17
  br label %38

38:                                               ; preds = %5, %37
  %.1 = phi i32 [ %.2, %37 ], [ %.01216, %5 ]
  %indvars.iv.next = add nuw nsw i64 %indvars.iv, 1
  %exitcond.not = icmp eq i64 %indvars.iv.next, 5
  br i1 %exitcond.not, label %39, label %5, !llvm.loop !24

39:                                               ; preds = %38
  call void @slurm_xfree(ptr noundef nonnull %4) #17
  call void @llvm.lifetime.end.p0(i64 8, ptr nonnull %4) #17
  call void @llvm.lifetime.end.p0(i64 8, ptr nonnull %3) #17
  ret i32 %.1
}